target datalayout = "e-m:e-p270:32:32-p271:32:32-p272:64:64-i64:64-i128:128-f80:128-n8:16:32:64-S128"
target triple = "x86_64-pc-linux-gnu"

%struct.ssl_connection_st = type { %struct.ssl_st, ptr, i32, ptr, ptr, ptr, i32, ptr, i32, i32, i32, i32, %struct.OSSL_TIME, %struct.OSSL_TIME, %struct.ossl_statem_st, i32, ptr, ptr, i64, i64, i64, %struct.ossl_quic_tls_callbacks_st, ptr, ptr, %struct.anon, ptr, ptr, ptr, i32, ptr, %struct.ssl_dane_st, ptr, ptr, ptr, ptr, i32, [64 x i8], [64 x i8], [64 x i8], [64 x i8], [64 x i8], [64 x i8], [64 x i8], [64 x i8], [64 x i8], [64 x i8], [64 x i8], [64 x i8], ptr, [64 x i8], i64, i32, i64, [32 x i8], ptr, ptr, ptr, i64, ptr, [32 x i8], i64, i32, ptr, ptr, i32, i32, ptr, ptr, ptr, ptr, ptr, i64, ptr, ptr, i64, i32, i32, i32, i64, i32, i32, i64, i64, i64, %struct.anon.1, ptr, i32, ptr, ptr, ptr, i32, ptr, ptr, ptr, i32, i32, i32, i32, ptr, i64, i32, ptr, %struct.srp_ctx_st, ptr, %struct.record_layer_st, ptr, ptr, ptr, ptr, i64, i32, i32, i32, i64, i64, i64, ptr, ptr, ptr, ptr, ptr, i64, ptr, i64, ptr, i64 }
%struct.ssl_st = type { i32, ptr, ptr, ptr, %struct.CRYPTO_REF_COUNT, ptr, %struct.crypto_ex_data_st }
%struct.CRYPTO_REF_COUNT = type { i32 }
%struct.crypto_ex_data_st = type { ptr, ptr }
%struct.OSSL_TIME = type { i64 }
%struct.ossl_statem_st = type { i32, i32, i32, i32, i32, i32, i32, i32, i32, i32, i32, i32, i32, ptr, ptr, ptr, i8 }
%struct.ossl_quic_tls_callbacks_st = type { ptr, ptr, ptr, ptr, ptr, ptr }
%struct.anon = type { i64, [32 x i8], [32 x i8], ptr, ptr, i32, i32, i32, i32, [2 x i8], i32, i32, i32, i32, %struct.anon.0, [64 x i8], i64, [64 x i8], i64, i32, i32, ptr, i64, ptr, i64, i32, i8, i8, i16, ptr, i16 }
%struct.anon.0 = type { [128 x i8], i64, [128 x i8], i64, i64, i32, ptr, ptr, [4 x ptr], [4 x i16], i64, i32, ptr, i64, ptr, i64, ptr, ptr, ptr, i32, i64, ptr, i32, ptr, i64, ptr, i64, ptr, i64, ptr, ptr, ptr, ptr, i64, i64, ptr, ptr, i32, i32, i32, i32 }
%struct.ssl_dane_st = type { ptr, ptr, ptr, ptr, ptr, i32, i32, i32, i64 }
%struct.anon.1 = type { [29 x i8], ptr, ptr, ptr, i32, ptr, i16, i32, %struct.anon.2, i32, i32, i64, ptr, i64, ptr, i64, ptr, i64, ptr, i64, ptr, i64, ptr, ptr, ptr, ptr, ptr, ptr, ptr, i64, ptr, i64, i32, i32, i32, i32, ptr, i64, i32, i8, i32, [4 x i32], i32, i8, i8, i8, i8 }
%struct.anon.2 = type { ptr, ptr, ptr, i64 }
%struct.srp_ctx_st = type { ptr, ptr, ptr, ptr, ptr, ptr, ptr, ptr, ptr, ptr, ptr, ptr, ptr, ptr, i32, i64 }
%struct.record_layer_st = type { ptr, ptr, ptr, ptr, ptr, ptr, ptr, ptr, i64, i32, i64, [4 x i8], i64, i64, i8, ptr, i32, ptr, ptr, ptr, i64, i64, i64, i64, [32 x %struct.tls_record_st] }
%struct.tls_record_st = type { ptr, i32, i8, ptr, ptr, i64, i64, i16, [8 x i8] }
%struct.ssl_method_st = type { i32, i32, i64, ptr, ptr, ptr, ptr, ptr, ptr, ptr, ptr, ptr, ptr, ptr, ptr, ptr, ptr, ptr, ptr, ptr, ptr, ptr, ptr, ptr, ptr, ptr, ptr, ptr, ptr, ptr, ptr, ptr }
%struct.ssl_async_args = type { ptr, ptr, i64, i32, %union.anon }
%union.anon = type { ptr }

@.str = private unnamed_addr constant [25 x i8] c"../openssl/ssl/ssl_lib.c\00", align 1
@__func__.ssl_write_internal = private unnamed_addr constant [19 x i8] c"ssl_write_internal\00", align 1

; Function Attrs: nounwind uwtable
define i32 @ssl_write_internal(ptr noundef %0, ptr noundef %1, i64 noundef %2, i64 noundef %3, ptr noundef %4) #0 {
  %6 = alloca i32, align 4
  %7 = alloca ptr, align 8
  %8 = alloca ptr, align 8
  %9 = alloca i64, align 8
  %10 = alloca i64, align 8
  %11 = alloca ptr, align 8
  %12 = alloca ptr, align 8
  %13 = alloca i32, align 4
  %14 = alloca i32, align 4
  %15 = alloca %struct.ssl_async_args, align 8
  store ptr %0, ptr %7, align 8, !tbaa !16
  store ptr %1, ptr %8, align 8, !tbaa !132
  store i64 %2, ptr %9, align 8, !tbaa !10
  store i64 %3, ptr %10, align 8, !tbaa !10
  store ptr %4, ptr %11, align 8, !tbaa !12
  call void @llvm.lifetime.start.p0(i64 8, ptr %12) #9
  %16 = load ptr, ptr %7, align 8, !tbaa !16
  %17 = icmp eq ptr %16, null
  br i1 %17, label %18, label %19

18:                                               ; preds = %5
  br label %40

19:                                               ; preds = %5
  %20 = load ptr, ptr %7, align 8, !tbaa !16
  %21 = getelementptr inbounds nuw %struct.ssl_st, ptr %20, i32 0, i32 0
  %22 = load i32, ptr %21, align 8, !tbaa !29
  %23 = icmp eq i32 %22, 0
  br i1 %23, label %24, label %26

24:                                               ; preds = %19
  %25 = load ptr, ptr %7, align 8, !tbaa !16
  br label %38

26:                                               ; preds = %19
  %27 = load ptr, ptr %7, align 8, !tbaa !16
  %28 = getelementptr inbounds nuw %struct.ssl_st, ptr %27, i32 0, i32 0
  %29 = load i32, ptr %28, align 8, !tbaa !29
  %30 = and i32 %29, 128
  %31 = icmp ne i32 %30, 0
  br i1 %31, label %32, label %35

32:                                               ; preds = %26
  %33 = load ptr, ptr %7, align 8, !tbaa !16
  %34 = call ptr @ossl_quic_obj_get0_handshake_layer(ptr noundef %33)
  br label %36

35:                                               ; preds = %26
  br label %36

36:                                               ; preds = %35, %32
  %37 = phi ptr [ %34, %32 ], [ null, %35 ]
  br label %38

38:                                               ; preds = %36, %24
  %39 = phi ptr [ %25, %24 ], [ %37, %36 ]
  br label %40

40:                                               ; preds = %38, %18
  %41 = phi ptr [ null, %18 ], [ %39, %38 ]
  store ptr %41, ptr %12, align 8, !tbaa !3
  %42 = load ptr, ptr %7, align 8, !tbaa !16
  %43 = icmp ne ptr %42, null
  br i1 %43, label %44, label %57

44:                                               ; preds = %40
  %45 = load ptr, ptr %7, align 8, !tbaa !16
  %46 = getelementptr inbounds nuw %struct.ssl_st, ptr %45, i32 0, i32 0
  %47 = load i32, ptr %46, align 8, !tbaa !29
  %48 = and i32 %47, 128
  %49 = icmp ne i32 %48, 0
  br i1 %49, label %50, label %57

50:                                               ; preds = %44
  %51 = load ptr, ptr %7, align 8, !tbaa !16
  %52 = load ptr, ptr %8, align 8, !tbaa !132
  %53 = load i64, ptr %9, align 8, !tbaa !10
  %54 = load i64, ptr %10, align 8, !tbaa !10
  %55 = load ptr, ptr %11, align 8, !tbaa !12
  %56 = call i32 @ossl_quic_write_flags(ptr noundef %51, ptr noundef %52, i64 noundef %53, i64 noundef %54, ptr noundef %55)
  store i32 %56, ptr %6, align 4
  store i32 1, ptr %13, align 4
  br label %138

57:                                               ; preds = %44, %40
  %58 = load ptr, ptr %12, align 8, !tbaa !3
  %59 = icmp eq ptr %58, null
  br i1 %59, label %60, label %61

60:                                               ; preds = %57
  store i32 0, ptr %6, align 4
  store i32 1, ptr %13, align 4
  br label %138

61:                                               ; preds = %57
  %62 = load ptr, ptr %12, align 8, !tbaa !3
  %63 = getelementptr inbounds nuw %struct.ssl_connection_st, ptr %62, i32 0, i32 7
  %64 = load ptr, ptr %63, align 8, !tbaa !431
  %65 = icmp eq ptr %64, null
  br i1 %65, label %66, label %67

66:                                               ; preds = %61
  call void @ERR_new()
  call void @ERR_set_debug(ptr noundef @.str, i32 noundef 2529, ptr noundef @__func__.ssl_write_internal)
  call void (i32, i32, ptr, ...) @ERR_set_error(i32 noundef 20, i32 noundef 276, ptr noundef null)
  store i32 -1, ptr %6, align 4
  store i32 1, ptr %13, align 4
  br label %138

67:                                               ; preds = %61
  %68 = load ptr, ptr %12, align 8, !tbaa !3
  %69 = getelementptr inbounds nuw %struct.ssl_connection_st, ptr %68, i32 0, i32 11
  %70 = load i32, ptr %69, align 4, !tbaa !87
  %71 = and i32 %70, 1
  %72 = icmp ne i32 %71, 0
  br i1 %72, label %73, label %76

73:                                               ; preds = %67
  %74 = load ptr, ptr %12, align 8, !tbaa !3
  %75 = getelementptr inbounds nuw %struct.ssl_connection_st, ptr %74, i32 0, i32 6
  store i32 1, ptr %75, align 8, !tbaa !92
  call void @ERR_new()
  call void @ERR_set_debug(ptr noundef @.str, i32 noundef 2535, ptr noundef @__func__.ssl_write_internal)
  call void (i32, i32, ptr, ...) @ERR_set_error(i32 noundef 20, i32 noundef 207, ptr noundef null)
  store i32 -1, ptr %6, align 4
  store i32 1, ptr %13, align 4
  br label %138

76:                                               ; preds = %67
  %77 = load i64, ptr %10, align 8, !tbaa !10
  %78 = icmp ne i64 %77, 0
  br i1 %78, label %79, label %80

79:                                               ; preds = %76
  call void @ERR_new()
  call void @ERR_set_debug(ptr noundef @.str, i32 noundef 2540, ptr noundef @__func__.ssl_write_internal)
  call void (i32, i32, ptr, ...) @ERR_set_error(i32 noundef 20, i32 noundef 412, ptr noundef null)
  store i32 -1, ptr %6, align 4
  store i32 1, ptr %13, align 4
  br label %138

80:                                               ; preds = %76
  %81 = load ptr, ptr %12, align 8, !tbaa !3
  %82 = getelementptr inbounds nuw %struct.ssl_connection_st, ptr %81, i32 0, i32 15
  %83 = load i32, ptr %82, align 8, !tbaa !439
  %84 = icmp eq i32 %83, 1
  br i1 %84, label %95, label %85

85:                                               ; preds = %80
  %86 = load ptr, ptr %12, align 8, !tbaa !3
  %87 = getelementptr inbounds nuw %struct.ssl_connection_st, ptr %86, i32 0, i32 15
  %88 = load i32, ptr %87, align 8, !tbaa !439
  %89 = icmp eq i32 %88, 8
  br i1 %89, label %95, label %90

90:                                               ; preds = %85
  %91 = load ptr, ptr %12, align 8, !tbaa !3
  %92 = getelementptr inbounds nuw %struct.ssl_connection_st, ptr %91, i32 0, i32 15
  %93 = load i32, ptr %92, align 8, !tbaa !439
  %94 = icmp eq i32 %93, 10
  br i1 %94, label %95, label %96

95:                                               ; preds = %90, %85, %80
  call void @ERR_new()
  call void @ERR_set_debug(ptr noundef @.str, i32 noundef 2547, ptr noundef @__func__.ssl_write_internal)
  call void (i32, i32, ptr, ...) @ERR_set_error(i32 noundef 20, i32 noundef 786689, ptr noundef null)
  store i32 0, ptr %6, align 4
  store i32 1, ptr %13, align 4
  br label %138

96:                                               ; preds = %90
  %97 = load ptr, ptr %12, align 8, !tbaa !3
  call void @ossl_statem_check_finish_init(ptr noundef %97, i32 noundef 1)
  %98 = load ptr, ptr %12, align 8, !tbaa !3
  %99 = getelementptr inbounds nuw %struct.ssl_connection_st, ptr %98, i32 0, i32 75
  %100 = load i32, ptr %99, align 8, !tbaa !144
  %101 = and i32 %100, 256
  %102 = icmp ne i32 %101, 0
  br i1 %102, label %103, label %127

103:                                              ; preds = %96
  %104 = call ptr @ASYNC_get_current_job()
  %105 = icmp eq ptr %104, null
  br i1 %105, label %106, label %127

106:                                              ; preds = %103
  call void @llvm.lifetime.start.p0(i64 4, ptr %14) #9
  call void @llvm.lifetime.start.p0(i64 40, ptr %15) #9
  %107 = load ptr, ptr %7, align 8, !tbaa !16
  %108 = getelementptr inbounds nuw %struct.ssl_async_args, ptr %15, i32 0, i32 0
  store ptr %107, ptr %108, align 8, !tbaa !433
  %109 = load ptr, ptr %8, align 8, !tbaa !132
  %110 = getelementptr inbounds nuw %struct.ssl_async_args, ptr %15, i32 0, i32 1
  store ptr %109, ptr %110, align 8, !tbaa !440
  %111 = load i64, ptr %9, align 8, !tbaa !10
  %112 = getelementptr inbounds nuw %struct.ssl_async_args, ptr %15, i32 0, i32 2
  store i64 %111, ptr %112, align 8, !tbaa !441
  %113 = getelementptr inbounds nuw %struct.ssl_async_args, ptr %15, i32 0, i32 3
  store i32 1, ptr %113, align 8, !tbaa !442
  %114 = load ptr, ptr %7, align 8, !tbaa !16
  %115 = getelementptr inbounds nuw %struct.ssl_st, ptr %114, i32 0, i32 3
  %116 = load ptr, ptr %115, align 8, !tbaa !18
  %117 = getelementptr inbounds nuw %struct.ssl_method_st, ptr %116, i32 0, i32 13
  %118 = load ptr, ptr %117, align 8, !tbaa !448
  %119 = getelementptr inbounds nuw %struct.ssl_async_args, ptr %15, i32 0, i32 4
  store ptr %118, ptr %119, align 8, !tbaa !282
  %120 = load ptr, ptr %7, align 8, !tbaa !16
  %121 = call i32 @ssl_start_async_job(ptr noundef %120, ptr noundef %15, ptr noundef @ssl_io_intern)
  store i32 %121, ptr %14, align 4, !tbaa !14
  %122 = load ptr, ptr %12, align 8, !tbaa !3
  %123 = getelementptr inbounds nuw %struct.ssl_connection_st, ptr %122, i32 0, i32 109
  %124 = load i64, ptr %123, align 8, !tbaa !443
  %125 = load ptr, ptr %11, align 8, !tbaa !12
  store i64 %124, ptr %125, align 8, !tbaa !10
  %126 = load i32, ptr %14, align 4, !tbaa !14
  store i32 %126, ptr %6, align 4
  store i32 1, ptr %13, align 4
  call void @llvm.lifetime.end.p0(i64 40, ptr %15) #9
  call void @llvm.lifetime.end.p0(i64 4, ptr %14) #9
  br label %138

127:                                              ; preds = %103, %96
  %128 = load ptr, ptr %7, align 8, !tbaa !16
  %129 = getelementptr inbounds nuw %struct.ssl_st, ptr %128, i32 0, i32 3
  %130 = load ptr, ptr %129, align 8, !tbaa !18
  %131 = getelementptr inbounds nuw %struct.ssl_method_st, ptr %130, i32 0, i32 13
  %132 = load ptr, ptr %131, align 8, !tbaa !448
  %133 = load ptr, ptr %7, align 8, !tbaa !16
  %134 = load ptr, ptr %8, align 8, !tbaa !132
  %135 = load i64, ptr %9, align 8, !tbaa !10
  %136 = load ptr, ptr %11, align 8, !tbaa !12
  %137 = call i32 %132(ptr noundef %133, ptr noundef %134, i64 noundef %135, ptr noundef %136)
  store i32 %137, ptr %6, align 4
  store i32 1, ptr %13, align 4
  br label %138

138:                                              ; preds = %127, %106, %95, %79, %73, %66, %60, %50
  call void @llvm.lifetime.end.p0(i64 8, ptr %12) #9
  %139 = load i32, ptr %6, align 4
  ret i32 %139
}