; Function Attrs: nounwind uwtable
define i32 @ssl_write_internal(ptr noundef %0, ptr noundef %1, i64 noundef %2, i64 noundef %3, ptr noundef %4) local_unnamed_addr #0 {
  %6 = alloca %struct.ssl_async_args, align 8
  %7 = icmp eq ptr %0, null
  br i1 %7, label %.thread44, label %8

8:                                                ; preds = %5
  %9 = load i32, ptr %0, align 8, !tbaa !19
  %10 = icmp eq i32 %9, 0
  br i1 %10, label %.thread48, label %11

11:                                               ; preds = %8
  %12 = and i32 %9, 128
  %.not = icmp eq i32 %12, 0
  br i1 %.not, label %15, label %13

13:                                               ; preds = %11
  %14 = tail call ptr @ossl_quic_obj_get0_handshake_layer(ptr noundef nonnull %0) #20
  %.pre = load i32, ptr %0, align 8, !tbaa !19
  br label %15

15:                                               ; preds = %11, %13
  %16 = phi i32 [ %9, %11 ], [ %.pre, %13 ]
  %.ph = phi ptr [ null, %11 ], [ %14, %13 ]
  %17 = and i32 %16, 128
  %.not40 = icmp eq i32 %17, 0
  br i1 %.not40, label %20, label %18

18:                                               ; preds = %15
  %19 = tail call i32 @ossl_quic_write_flags(ptr noundef nonnull %0, ptr noundef %1, i64 noundef %2, i64 noundef %3, ptr noundef %4) #20
  br label %.thread44

20:                                               ; preds = %15
  %21 = icmp eq ptr %.ph, null
  br i1 %21, label %.thread44, label %.thread48

.thread48:                                        ; preds = %8, %20
  %.ph4750 = phi ptr [ %.ph, %20 ], [ %0, %8 ]
  %22 = getelementptr inbounds nuw i8, ptr %.ph4750, i64 112
  %23 = load ptr, ptr %22, align 8, !tbaa !390
  %24 = icmp eq ptr %23, null
  br i1 %24, label %25, label %26

25:                                               ; preds = %.thread48
  tail call void @ERR_new() #20
  tail call void @ERR_set_debug(ptr noundef nonnull @.str, i32 noundef 2529, ptr noundef nonnull @__func__.ssl_write_internal) #20
  tail call void (i32, i32, ptr, ...) @ERR_set_error(i32 noundef 20, i32 noundef 276, ptr noundef null) #20
  br label %.thread44

26:                                               ; preds = %.thread48
  %27 = getelementptr inbounds nuw i8, ptr %.ph4750, i64 132
  %28 = load i32, ptr %27, align 4, !tbaa !80
  %29 = and i32 %28, 1
  %.not41 = icmp eq i32 %29, 0
  br i1 %.not41, label %32, label %30

30:                                               ; preds = %26
  %31 = getelementptr inbounds nuw i8, ptr %.ph4750, i64 104
  store i32 1, ptr %31, align 8, !tbaa !85
  tail call void @ERR_new() #20
  tail call void @ERR_set_debug(ptr noundef nonnull @.str, i32 noundef 2535, ptr noundef nonnull @__func__.ssl_write_internal) #20
  tail call void (i32, i32, ptr, ...) @ERR_set_error(i32 noundef 20, i32 noundef 207, ptr noundef null) #20
  br label %.thread44

32:                                               ; preds = %26
  %.not42 = icmp eq i64 %3, 0
  br i1 %.not42, label %34, label %33

33:                                               ; preds = %32
  tail call void @ERR_new() #20
  tail call void @ERR_set_debug(ptr noundef nonnull @.str, i32 noundef 2540, ptr noundef nonnull @__func__.ssl_write_internal) #20
  tail call void (i32, i32, ptr, ...) @ERR_set_error(i32 noundef 20, i32 noundef 412, ptr noundef null) #20
  br label %.thread44

34:                                               ; preds = %32
  %35 = getelementptr inbounds nuw i8, ptr %.ph4750, i64 240
  %36 = load i32, ptr %35, align 8, !tbaa !397
  switch i32 %36, label %38 [
    i32 1, label %37
    i32 8, label %37
    i32 10, label %37
  ]

37:                                               ; preds = %34, %34, %34
  tail call void @ERR_new() #20
  tail call void @ERR_set_debug(ptr noundef nonnull @.str, i32 noundef 2547, ptr noundef nonnull @__func__.ssl_write_internal) #20
  tail call void (i32, i32, ptr, ...) @ERR_set_error(i32 noundef 20, i32 noundef 786689, ptr noundef null) #20
  br label %.thread44

38:                                               ; preds = %34
  tail call void @ossl_statem_check_finish_init(ptr noundef nonnull %.ph4750, i32 noundef 1) #20
  %39 = getelementptr inbounds nuw i8, ptr %.ph4750, i64 2488
  %40 = load i32, ptr %39, align 8, !tbaa !130
  %41 = and i32 %40, 256
  %.not43 = icmp eq i32 %41, 0
  br i1 %.not43, label %57, label %42

42:                                               ; preds = %38
  %43 = tail call ptr @ASYNC_get_current_job() #20
  %44 = icmp eq ptr %43, null
  br i1 %44, label %45, label %57

45:                                               ; preds = %42
  call void @llvm.lifetime.start.p0(i64 40, ptr nonnull %6) #20
  store ptr %0, ptr %6, align 8, !tbaa !392
  %46 = getelementptr inbounds nuw i8, ptr %6, i64 8
  store ptr %1, ptr %46, align 8, !tbaa !398
  %47 = getelementptr inbounds nuw i8, ptr %6, i64 16
  store i64 %2, ptr %47, align 8, !tbaa !399
  %48 = getelementptr inbounds nuw i8, ptr %6, i64 24
  store i32 1, ptr %48, align 8, !tbaa !400
  %49 = getelementptr inbounds nuw i8, ptr %0, i64 24
  %50 = load ptr, ptr %49, align 8, !tbaa !3
  %51 = getelementptr inbounds nuw i8, ptr %50, i64 96
  %52 = load ptr, ptr %51, align 8, !tbaa !404
  %53 = getelementptr inbounds nuw i8, ptr %6, i64 32
  store ptr %52, ptr %53, align 8, !tbaa !261
  %54 = call fastcc i32 @ssl_start_async_job(ptr noundef nonnull %0, ptr noundef %6, ptr noundef nonnull @ssl_io_intern)
  %55 = getelementptr inbounds nuw i8, ptr %.ph4750, i64 5432
  %56 = load i64, ptr %55, align 8, !tbaa !401
  store i64 %56, ptr %4, align 8, !tbaa !285
  call void @llvm.lifetime.end.p0(i64 40, ptr nonnull %6) #20
  br label %.thread44

57:                                               ; preds = %42, %38
  %58 = getelementptr inbounds nuw i8, ptr %0, i64 24
  %59 = load ptr, ptr %58, align 8, !tbaa !3
  %60 = getelementptr inbounds nuw i8, ptr %59, i64 96
  %61 = load ptr, ptr %60, align 8, !tbaa !404
  %62 = tail call i32 %61(ptr noundef nonnull %0, ptr noundef %1, i64 noundef %2, ptr noundef %4) #20
  br label %.thread44

.thread44:                                        ; preds = %5, %20, %57, %45, %37, %33, %30, %25, %18
  %.0 = phi i32 [ %19, %18 ], [ -1, %25 ], [ -1, %30 ], [ -1, %33 ], [ 0, %37 ], [ %54, %45 ], [ %62, %57 ], [ 0, %20 ], [ 0, %5 ]
  ret i32 %.0
}